target datalayout = "e-m:e-p270:32:32-p271:32:32-p272:64:64-i64:64-i128:128-f80:128-n8:16:32:64-S128"
target triple = "x86_64-pc-linux-gnu"

%struct.H5EA_hdr_t = type { %struct.H5C_cache_entry_t, %struct.H5EA_create_t, i64, %struct.H5EA_stat_t, %struct.anon.1, i64, i64, i64, ptr, i64, i8, i64, i64, i8, i64, ptr, i64, ptr, i8, ptr, ptr }
%struct.H5C_cache_entry_t = type { ptr, i64, i64, ptr, i8, ptr, i8, i8, i8, i8, i32, i8, i8, i8, i8, i8, i32, ptr, i32, i32, i32, i32, i32, i8, i8, ptr, ptr, ptr, ptr, ptr, ptr, i8, i32, i8, i64, ptr, i64, i64, i32, i8, i32, i32, i8, ptr, ptr, ptr }
%struct.H5EA_create_t = type { ptr, i8, i8, i8, i8, i8, i8 }
%struct.H5EA_stat_t = type { %struct.anon, %struct.anon.0 }
%struct.anon = type { i64, i64, i64 }
%struct.anon.0 = type { i64, i64, i64, i64, i64, i64 }
%struct.anon.1 = type { i64, ptr }
%struct.H5EA_t = type { ptr, ptr }

@H5EA_init_g = global i8 0, align 1
@H5_libterm_g = external global i8, align 1
@.str = private unnamed_addr constant [98 x i8] c"generated/home/dtcxzyw/WorkSpace/Projects/compilers/llvm-opt-benchmark/bench/hdf5/hdf5/src/H5EA.c\00", align 1
@H5E_EARRAY_g = external global i64, align 8
@H5E_CLOSEERROR_g = external global i64, align 8
@.str.3 = private unnamed_addr constant [33 x i8] c"unable to close extensible array\00", align 1
@H5E_CANTPROTECT_g = external global i64, align 8
@H5E_CANTUNPROTECT_g = external global i64, align 8
@.str.9 = private unnamed_addr constant [39 x i8] c"unable to load extensible array header\00", align 1
@.str.13 = private unnamed_addr constant [42 x i8] c"unable to release extensible array header\00", align 1
@H5E_CANTALLOC_g = external global i64, align 8
@__func__.H5EA__new = private unnamed_addr constant [10 x i8] c"H5EA__new\00", align 1
@.str.17 = private unnamed_addr constant [51 x i8] c"memory allocation failed for extensible array info\00", align 1
@H5E_CANTOPENOBJ_g = external global i64, align 8
@.str.18 = private unnamed_addr constant [45 x i8] c"can't open extensible array pending deletion\00", align 1
@H5E_CANTINC_g = external global i64, align 8
@.str.19 = private unnamed_addr constant [55 x i8] c"can't increment reference count on shared array header\00", align 1
@.str.20 = private unnamed_addr constant [60 x i8] c"can't increment file reference count on shared array header\00", align 1
@H5_H5EA_t_reg_free_list = internal global { i8, [3 x i8], i32, i32, [4 x i8], ptr, i64, ptr } { i8 0, [3 x i8] zeroinitializer, i32 0, i32 0, [4 x i8] zeroinitializer, ptr @.str.36, i64 16, ptr null }, align 8

; Function Attrs: nounwind uwtable
define internal ptr @H5EA__new(ptr noundef %0, i64 noundef %1, i1 noundef zeroext %2, ptr noundef %3) #0 {
  %5 = alloca ptr, align 8
  %6 = alloca i64, align 8
  %7 = alloca i8, align 1
  %8 = alloca ptr, align 8
  %9 = alloca ptr, align 8
  %10 = alloca ptr, align 8
  %11 = alloca ptr, align 8
  %12 = alloca i8, align 1
  store ptr %0, ptr %5, align 8, !tbaa !3
  store i64 %1, ptr %6, align 8, !tbaa !17
  %13 = zext i1 %2 to i8
  store i8 %13, ptr %7, align 1, !tbaa !13
  store ptr %3, ptr %8, align 8, !tbaa !10
  call void @llvm.lifetime.start.p0(i64 8, ptr %9) #6
  store ptr null, ptr %9, align 8, !tbaa !11
  call void @llvm.lifetime.start.p0(i64 8, ptr %10) #6
  store ptr null, ptr %10, align 8, !tbaa !19
  call void @llvm.lifetime.start.p0(i64 8, ptr %11) #6
  store ptr null, ptr %11, align 8, !tbaa !11
  call void @llvm.lifetime.start.p0(i64 1, ptr %12) #6
  store i8 0, ptr %12, align 1, !tbaa !13
  %14 = load i8, ptr @H5EA_init_g, align 1, !tbaa !13, !range !15, !noundef !16
  %15 = trunc i8 %14 to i1
  br i1 %15, label %20, label %16

16:                                               ; preds = %4
  %17 = load i8, ptr @H5_libterm_g, align 1, !tbaa !13, !range !15, !noundef !16
  %18 = trunc i8 %17 to i1
  %19 = xor i1 %18, true
  br label %20

20:                                               ; preds = %16, %4
  %21 = phi i1 [ true, %4 ], [ %19, %16 ]
  %22 = xor i1 %21, true
  %23 = xor i1 %22, true
  %24 = zext i1 %23 to i32
  %25 = sext i32 %24 to i64
  %26 = call i64 @llvm.expect.i64(i64 %25, i64 1)
  %27 = icmp ne i64 %26, 0
  br i1 %27, label %28, label %211

28:                                               ; preds = %20
  %29 = call noalias ptr @H5FL_reg_calloc(ptr noundef @H5_H5EA_t_reg_free_list)
  store ptr %29, ptr %9, align 8, !tbaa !11
  %30 = icmp eq ptr null, %29
  br i1 %30, label %31, label %50

31:                                               ; preds = %28
  br label %32

32:                                               ; preds = %31
  br label %33

33:                                               ; preds = %32
  br label %34

34:                                               ; preds = %33
  %35 = load i64, ptr @H5E_EARRAY_g, align 8, !tbaa !17
  %36 = load i64, ptr @H5E_CANTALLOC_g, align 8, !tbaa !17
  %37 = call i32 (ptr, ptr, i32, i64, i64, ptr, ...) @H5E_printf_stack(ptr noundef @.str, ptr noundef @__func__.H5EA__new, i32 noundef 128, i64 noundef %35, i64 noundef %36, ptr noundef @.str.17)
  br label %38

38:                                               ; preds = %34
  br label %39

39:                                               ; preds = %38
  store i8 1, ptr %12, align 1, !tbaa !13
  %40 = load i8, ptr %12, align 1, !tbaa !13, !range !15, !noundef !16
  %41 = trunc i8 %40 to i1
  %42 = zext i1 %41 to i8
  store i8 %42, ptr %12, align 1, !tbaa !13
  br label %43

43:                                               ; preds = %39
  br label %44

44:                                               ; preds = %43
  br label %45

45:                                               ; preds = %44
  store ptr null, ptr %11, align 8, !tbaa !11
  br label %160

46:                                               ; No predecessors!
  br label %47

47:                                               ; preds = %46
  br label %48

48:                                               ; preds = %47
  br label %49

49:                                               ; preds = %48
  br label %50

50:                                               ; preds = %49, %28
  %51 = load ptr, ptr %5, align 8, !tbaa !3
  %52 = load i64, ptr %6, align 8, !tbaa !17
  %53 = load ptr, ptr %8, align 8, !tbaa !10
  %54 = call ptr @H5EA__hdr_protect(ptr noundef %51, i64 noundef %52, ptr noundef %53, i32 noundef 128)
  store ptr %54, ptr %10, align 8, !tbaa !19
  %55 = icmp eq ptr null, %54
  br i1 %55, label %56, label %75

56:                                               ; preds = %50
  br label %57

57:                                               ; preds = %56
  br label %58

58:                                               ; preds = %57
  br label %59

59:                                               ; preds = %58
  %60 = load i64, ptr @H5E_EARRAY_g, align 8, !tbaa !17
  %61 = load i64, ptr @H5E_CANTPROTECT_g, align 8, !tbaa !17
  %62 = call i32 (ptr, ptr, i32, i64, i64, ptr, ...) @H5E_printf_stack(ptr noundef @.str, ptr noundef @__func__.H5EA__new, i32 noundef 132, i64 noundef %60, i64 noundef %61, ptr noundef @.str.9)
  br label %63

63:                                               ; preds = %59
  br label %64

64:                                               ; preds = %63
  store i8 1, ptr %12, align 1, !tbaa !13
  %65 = load i8, ptr %12, align 1, !tbaa !13, !range !15, !noundef !16
  %66 = trunc i8 %65 to i1
  %67 = zext i1 %66 to i8
  store i8 %67, ptr %12, align 1, !tbaa !13
  br label %68

68:                                               ; preds = %64
  br label %69

69:                                               ; preds = %68
  br label %70

70:                                               ; preds = %69
  store ptr null, ptr %11, align 8, !tbaa !11
  br label %160

71:                                               ; No predecessors!
  br label %72

72:                                               ; preds = %71
  br label %73

73:                                               ; preds = %72
  br label %74

74:                                               ; preds = %73
  br label %75

75:                                               ; preds = %74, %50
  %76 = load i8, ptr %7, align 1, !tbaa !13, !range !15, !noundef !16
  %77 = trunc i8 %76 to i1
  br i1 %77, label %78, label %102

78:                                               ; preds = %75
  %79 = load ptr, ptr %10, align 8, !tbaa !19
  %80 = getelementptr inbounds nuw %struct.H5EA_hdr_t, ptr %79, i32 0, i32 10
  %81 = load i8, ptr %80, align 8, !tbaa !21, !range !15, !noundef !16
  %82 = trunc i8 %81 to i1
  br i1 %82, label %83, label %102

83:                                               ; preds = %78
  br label %84

84:                                               ; preds = %83
  br label %85

85:                                               ; preds = %84
  br label %86

86:                                               ; preds = %85
  %87 = load i64, ptr @H5E_EARRAY_g, align 8, !tbaa !17
  %88 = load i64, ptr @H5E_CANTOPENOBJ_g, align 8, !tbaa !17
  %89 = call i32 (ptr, ptr, i32, i64, i64, ptr, ...) @H5E_printf_stack(ptr noundef @.str, ptr noundef @__func__.H5EA__new, i32 noundef 136, i64 noundef %87, i64 noundef %88, ptr noundef @.str.18)
  br label %90

90:                                               ; preds = %86
  br label %91

91:                                               ; preds = %90
  store i8 1, ptr %12, align 1, !tbaa !13
  %92 = load i8, ptr %12, align 1, !tbaa !13, !range !15, !noundef !16
  %93 = trunc i8 %92 to i1
  %94 = zext i1 %93 to i8
  store i8 %94, ptr %12, align 1, !tbaa !13
  br label %95

95:                                               ; preds = %91
  br label %96

96:                                               ; preds = %95
  br label %97

97:                                               ; preds = %96
  store ptr null, ptr %11, align 8, !tbaa !11
  br label %160

98:                                               ; No predecessors!
  br label %99

99:                                               ; preds = %98
  br label %100

100:                                              ; preds = %99
  br label %101

101:                                              ; preds = %100
  br label %102

102:                                              ; preds = %101, %78, %75
  %103 = load ptr, ptr %10, align 8, !tbaa !19
  %104 = load ptr, ptr %9, align 8, !tbaa !11
  %105 = getelementptr inbounds nuw %struct.H5EA_t, ptr %104, i32 0, i32 0
  store ptr %103, ptr %105, align 8, !tbaa !40
  %106 = load ptr, ptr %9, align 8, !tbaa !11
  %107 = getelementptr inbounds nuw %struct.H5EA_t, ptr %106, i32 0, i32 0
  %108 = load ptr, ptr %107, align 8, !tbaa !40
  %109 = call i32 @H5EA__hdr_incr(ptr noundef %108)
  %110 = icmp slt i32 %109, 0
  br i1 %110, label %111, label %130

111:                                              ; preds = %102
  br label %112

112:                                              ; preds = %111
  br label %113

113:                                              ; preds = %112
  br label %114

114:                                              ; preds = %113
  %115 = load i64, ptr @H5E_EARRAY_g, align 8, !tbaa !17
  %116 = load i64, ptr @H5E_CANTINC_g, align 8, !tbaa !17
  %117 = call i32 (ptr, ptr, i32, i64, i64, ptr, ...) @H5E_printf_stack(ptr noundef @.str, ptr noundef @__func__.H5EA__new, i32 noundef 141, i64 noundef %115, i64 noundef %116, ptr noundef @.str.19)
  br label %118

118:                                              ; preds = %114
  br label %119

119:                                              ; preds = %118
  store i8 1, ptr %12, align 1, !tbaa !13
  %120 = load i8, ptr %12, align 1, !tbaa !13, !range !15, !noundef !16
  %121 = trunc i8 %120 to i1
  %122 = zext i1 %121 to i8
  store i8 %122, ptr %12, align 1, !tbaa !13
  br label %123

123:                                              ; preds = %119
  br label %124

124:                                              ; preds = %123
  br label %125

125:                                              ; preds = %124
  store ptr null, ptr %11, align 8, !tbaa !11
  br label %160

126:                                              ; No predecessors!
  br label %127

127:                                              ; preds = %126
  br label %128

128:                                              ; preds = %127
  br label %129

129:                                              ; preds = %128
  br label %130

130:                                              ; preds = %129, %102
  %131 = load ptr, ptr %9, align 8, !tbaa !11
  %132 = getelementptr inbounds nuw %struct.H5EA_t, ptr %131, i32 0, i32 0
  %133 = load ptr, ptr %132, align 8, !tbaa !40
  %134 = call i32 @H5EA__hdr_fuse_incr(ptr noundef %133)
  %135 = icmp slt i32 %134, 0
  br i1 %135, label %136, label %155

136:                                              ; preds = %130
  br label %137

137:                                              ; preds = %136
  br label %138

138:                                              ; preds = %137
  br label %139

139:                                              ; preds = %138
  %140 = load i64, ptr @H5E_EARRAY_g, align 8, !tbaa !17
  %141 = load i64, ptr @H5E_CANTINC_g, align 8, !tbaa !17
  %142 = call i32 (ptr, ptr, i32, i64, i64, ptr, ...) @H5E_printf_stack(ptr noundef @.str, ptr noundef @__func__.H5EA__new, i32 noundef 146, i64 noundef %140, i64 noundef %141, ptr noundef @.str.20)
  br label %143

143:                                              ; preds = %139
  br label %144

144:                                              ; preds = %143
  store i8 1, ptr %12, align 1, !tbaa !13
  %145 = load i8, ptr %12, align 1, !tbaa !13, !range !15, !noundef !16
  %146 = trunc i8 %145 to i1
  %147 = zext i1 %146 to i8
  store i8 %147, ptr %12, align 1, !tbaa !13
  br label %148

148:                                              ; preds = %144
  br label %149

149:                                              ; preds = %148
  br label %150

150:                                              ; preds = %149
  store ptr null, ptr %11, align 8, !tbaa !11
  br label %160

151:                                              ; No predecessors!
  br label %152

152:                                              ; preds = %151
  br label %153

153:                                              ; preds = %152
  br label %154

154:                                              ; preds = %153
  br label %155

155:                                              ; preds = %154, %130
  %156 = load ptr, ptr %5, align 8, !tbaa !3
  %157 = load ptr, ptr %9, align 8, !tbaa !11
  %158 = getelementptr inbounds nuw %struct.H5EA_t, ptr %157, i32 0, i32 1
  store ptr %156, ptr %158, align 8, !tbaa !42
  %159 = load ptr, ptr %9, align 8, !tbaa !11
  store ptr %159, ptr %11, align 8, !tbaa !11
  br label %160

160:                                              ; preds = %155, %150, %125, %97, %70, %45
  %161 = load ptr, ptr %10, align 8, !tbaa !19
  %162 = icmp ne ptr %161, null
  br i1 %162, label %163, label %183

163:                                              ; preds = %160
  %164 = load ptr, ptr %10, align 8, !tbaa !19
  %165 = call i32 @H5EA__hdr_unprotect(ptr noundef %164, i32 noundef 0)
  %166 = icmp slt i32 %165, 0
  br i1 %166, label %167, label %183

167:                                              ; preds = %163
  br label %168

168:                                              ; preds = %167
  br label %169

169:                                              ; preds = %168
  br label %170

170:                                              ; preds = %169
  %171 = load i64, ptr @H5E_EARRAY_g, align 8, !tbaa !17
  %172 = load i64, ptr @H5E_CANTUNPROTECT_g, align 8, !tbaa !17
  %173 = call i32 (ptr, ptr, i32, i64, i64, ptr, ...) @H5E_printf_stack(ptr noundef @.str, ptr noundef @__func__.H5EA__new, i32 noundef 157, i64 noundef %171, i64 noundef %172, ptr noundef @.str.13)
  br label %174

174:                                              ; preds = %170
  br label %175

175:                                              ; preds = %174
  store i8 1, ptr %12, align 1, !tbaa !13
  %176 = load i8, ptr %12, align 1, !tbaa !13, !range !15, !noundef !16
  %177 = trunc i8 %176 to i1
  %178 = zext i1 %177 to i8
  store i8 %178, ptr %12, align 1, !tbaa !13
  br label %179

179:                                              ; preds = %175
  br label %180

180:                                              ; preds = %179
  store ptr null, ptr %11, align 8, !tbaa !11
  br label %181

181:                                              ; preds = %180
  br label %182

182:                                              ; preds = %181
  br label %183

183:                                              ; preds = %182, %163, %160
  %184 = load ptr, ptr %11, align 8, !tbaa !11
  %185 = icmp ne ptr %184, null
  br i1 %185, label %210, label %186

186:                                              ; preds = %183
  %187 = load ptr, ptr %9, align 8, !tbaa !11
  %188 = icmp ne ptr %187, null
  br i1 %188, label %189, label %209

189:                                              ; preds = %186
  %190 = load ptr, ptr %9, align 8, !tbaa !11
  %191 = call i32 @H5EA_close(ptr noundef %190)
  %192 = icmp slt i32 %191, 0
  br i1 %192, label %193, label %209

193:                                              ; preds = %189
  br label %194

194:                                              ; preds = %193
  br label %195

195:                                              ; preds = %194
  br label %196

196:                                              ; preds = %195
  %197 = load i64, ptr @H5E_EARRAY_g, align 8, !tbaa !17
  %198 = load i64, ptr @H5E_CLOSEERROR_g, align 8, !tbaa !17
  %199 = call i32 (ptr, ptr, i32, i64, i64, ptr, ...) @H5E_printf_stack(ptr noundef @.str, ptr noundef @__func__.H5EA__new, i32 noundef 160, i64 noundef %197, i64 noundef %198, ptr noundef @.str.3)
  br label %200

200:                                              ; preds = %196
  br label %201

201:                                              ; preds = %200
  store i8 1, ptr %12, align 1, !tbaa !13
  %202 = load i8, ptr %12, align 1, !tbaa !13, !range !15, !noundef !16
  %203 = trunc i8 %202 to i1
  %204 = zext i1 %203 to i8
  store i8 %204, ptr %12, align 1, !tbaa !13
  br label %205

205:                                              ; preds = %201
  br label %206

206:                                              ; preds = %205
  store ptr null, ptr %11, align 8, !tbaa !11
  br label %207

207:                                              ; preds = %206
  br label %208

208:                                              ; preds = %207
  br label %209

209:                                              ; preds = %208, %189, %186
  br label %210

210:                                              ; preds = %209, %183
  br label %211

211:                                              ; preds = %210, %20
  %212 = load ptr, ptr %11, align 8, !tbaa !11
  call void @llvm.lifetime.end.p0(i64 1, ptr %12) #6
  call void @llvm.lifetime.end.p0(i64 8, ptr %11) #6
  call void @llvm.lifetime.end.p0(i64 8, ptr %10) #6
  call void @llvm.lifetime.end.p0(i64 8, ptr %9) #6
  ret ptr %212
}