; Function Attrs: nounwind uwtable
define internal fastcc ptr @H5EA__new(ptr noundef %0, i64 noundef %1, i1 noundef zeroext %2, ptr noundef %3) unnamed_addr #0 {
  %5 = load i8, ptr @H5EA_init_g, align 1, !tbaa !3, !range !7, !noundef !8
  %6 = trunc nuw i8 %5 to i1
  %7 = load i8, ptr @H5_libterm_g, align 1, !range !7
  %8 = trunc nuw i8 %7 to i1
  %9 = xor i1 %8, true
  %10 = select i1 %6, i1 true, i1 %9
  br i1 %10, label %11, label %64, !prof !9

11:                                               ; preds = %4
  %12 = tail call noalias ptr @H5FL_reg_calloc(ptr noundef nonnull @H5_H5EA_t_reg_free_list) #5
  %13 = icmp eq ptr %12, null
  br i1 %13, label %.thread35, label %17

.thread35:                                        ; preds = %11
  %14 = load i64, ptr @H5E_EARRAY_g, align 8, !tbaa !11
  %15 = load i64, ptr @H5E_CANTALLOC_g, align 8, !tbaa !11
  %16 = tail call i32 (ptr, ptr, i32, i64, i64, ptr, ...) @H5E_printf_stack(ptr noundef nonnull @.str, ptr noundef nonnull @__func__.H5EA__new, i32 noundef 128, i64 noundef %14, i64 noundef %15, ptr noundef nonnull @.str.17) #5
  br label %64

17:                                               ; preds = %11
  %18 = tail call ptr @H5EA__hdr_protect(ptr noundef %0, i64 noundef %1, ptr noundef %3, i32 noundef 128) #5
  %19 = icmp eq ptr %18, null
  br i1 %19, label %20, label %24

20:                                               ; preds = %17
  %21 = load i64, ptr @H5E_EARRAY_g, align 8, !tbaa !11
  %22 = load i64, ptr @H5E_CANTPROTECT_g, align 8, !tbaa !11
  %23 = tail call i32 (ptr, ptr, i32, i64, i64, ptr, ...) @H5E_printf_stack(ptr noundef nonnull @.str, ptr noundef nonnull @__func__.H5EA__new, i32 noundef 132, i64 noundef %21, i64 noundef %22, ptr noundef nonnull @.str.9) #5
  br label %.thread

24:                                               ; preds = %17
  br i1 %2, label %25, label %33

25:                                               ; preds = %24
  %26 = getelementptr inbounds nuw i8, ptr %18, i64 400
  %27 = load i8, ptr %26, align 8, !tbaa !13, !range !7, !noundef !8
  %28 = trunc nuw i8 %27 to i1
  br i1 %28, label %29, label %33

29:                                               ; preds = %25
  %30 = load i64, ptr @H5E_EARRAY_g, align 8, !tbaa !11
  %31 = load i64, ptr @H5E_CANTOPENOBJ_g, align 8, !tbaa !11
  %32 = tail call i32 (ptr, ptr, i32, i64, i64, ptr, ...) @H5E_printf_stack(ptr noundef nonnull @.str, ptr noundef nonnull @__func__.H5EA__new, i32 noundef 136, i64 noundef %30, i64 noundef %31, ptr noundef nonnull @.str.18) #5
  br label %49

33:                                               ; preds = %25, %24
  store ptr %18, ptr %12, align 8, !tbaa !34
  %34 = tail call i32 @H5EA__hdr_incr(ptr noundef nonnull %18) #5
  %35 = icmp slt i32 %34, 0
  br i1 %35, label %36, label %40

36:                                               ; preds = %33
  %37 = load i64, ptr @H5E_EARRAY_g, align 8, !tbaa !11
  %38 = load i64, ptr @H5E_CANTINC_g, align 8, !tbaa !11
  %39 = tail call i32 (ptr, ptr, i32, i64, i64, ptr, ...) @H5E_printf_stack(ptr noundef nonnull @.str, ptr noundef nonnull @__func__.H5EA__new, i32 noundef 141, i64 noundef %37, i64 noundef %38, ptr noundef nonnull @.str.19) #5
  br label %49

40:                                               ; preds = %33
  %41 = tail call i32 @H5EA__hdr_fuse_incr(ptr noundef nonnull %18) #5
  %42 = icmp slt i32 %41, 0
  br i1 %42, label %43, label %47

43:                                               ; preds = %40
  %44 = load i64, ptr @H5E_EARRAY_g, align 8, !tbaa !11
  %45 = load i64, ptr @H5E_CANTINC_g, align 8, !tbaa !11
  %46 = tail call i32 (ptr, ptr, i32, i64, i64, ptr, ...) @H5E_printf_stack(ptr noundef nonnull @.str, ptr noundef nonnull @__func__.H5EA__new, i32 noundef 146, i64 noundef %44, i64 noundef %45, ptr noundef nonnull @.str.20) #5
  br label %49

47:                                               ; preds = %40
  %48 = getelementptr inbounds nuw i8, ptr %12, i64 8
  store ptr %0, ptr %48, align 8, !tbaa !37
  br label %49

49:                                               ; preds = %29, %36, %43, %47
  %.1.ph = phi ptr [ %12, %47 ], [ null, %43 ], [ null, %36 ], [ null, %29 ]
  %50 = tail call i32 @H5EA__hdr_unprotect(ptr noundef nonnull %18, i32 noundef 0) #5
  %51 = icmp slt i32 %50, 0
  br i1 %51, label %52, label %56

52:                                               ; preds = %49
  %53 = load i64, ptr @H5E_EARRAY_g, align 8, !tbaa !11
  %54 = load i64, ptr @H5E_CANTUNPROTECT_g, align 8, !tbaa !11
  %55 = tail call i32 (ptr, ptr, i32, i64, i64, ptr, ...) @H5E_printf_stack(ptr noundef nonnull @.str, ptr noundef nonnull @__func__.H5EA__new, i32 noundef 157, i64 noundef %53, i64 noundef %54, ptr noundef nonnull @.str.13) #5
  br label %.thread

56:                                               ; preds = %49
  %57 = icmp eq ptr %.1.ph, null
  br i1 %57, label %.thread, label %64

.thread:                                          ; preds = %20, %52, %56
  %58 = tail call i32 @H5EA_close(ptr noundef nonnull %12)
  %59 = icmp slt i32 %58, 0
  br i1 %59, label %60, label %64

60:                                               ; preds = %.thread
  %61 = load i64, ptr @H5E_EARRAY_g, align 8, !tbaa !11
  %62 = load i64, ptr @H5E_CLOSEERROR_g, align 8, !tbaa !11
  %63 = tail call i32 (ptr, ptr, i32, i64, i64, ptr, ...) @H5E_printf_stack(ptr noundef nonnull @.str, ptr noundef nonnull @__func__.H5EA__new, i32 noundef 160, i64 noundef %61, i64 noundef %62, ptr noundef nonnull @.str.3) #5
  br label %64

64:                                               ; preds = %.thread35, %56, %60, %.thread, %4
  %.0 = phi ptr [ null, %60 ], [ null, %.thread ], [ %.1.ph, %56 ], [ null, %4 ], [ null, %.thread35 ]
  ret ptr %.0
}